; Function Attrs: nounwind uwtable
define dso_local ptr @luaL_newstate() local_unnamed_addr #0 {
  %1 = tail call ptr @lua_newstate(ptr noundef nonnull inttoptr (i64 19792 to ptr), ptr noundef null) #13
  %.not = icmp eq ptr %1, null
  br i1 %.not, label %14, label %2

2:                                                ; preds = %0
  %3 = getelementptr inbounds nuw i8, ptr %1, i64 16
  %4 = load i64, ptr %3, align 8, !tbaa !16
  %5 = inttoptr i64 %4 to ptr
  %6 = getelementptr inbounds nuw i8, ptr %5, i64 352
  store ptr @panic, ptr %6, align 8, !tbaa !56
  %7 = tail call ptr @luaL_findtable(ptr noundef nonnull %1, i32 noundef -10000, ptr noundef nonnull @.str.6, i32 noundef 4)
  tail call void @lua_pushcclosure(ptr noundef nonnull %1, ptr noundef nonnull @error_finalizer, i32 noundef 0) #13
  tail call void @lua_rawseti(ptr noundef nonnull %1, i32 noundef -2, i32 noundef -1765161920) #13
  %8 = load i64, ptr %3, align 8, !tbaa !16
  %9 = inttoptr i64 %8 to ptr
  %10 = getelementptr inbounds nuw i8, ptr %9, i64 147
  store i8 16, ptr %10, align 1, !tbaa !57
  %11 = getelementptr inbounds nuw i8, ptr %1, i64 40
  %12 = load ptr, ptr %11, align 8, !tbaa !4
  %13 = getelementptr inbounds i8, ptr %12, i64 -8
  store ptr %13, ptr %11, align 8, !tbaa !4
  br label %14

14:                                               ; preds = %2, %0
  ret ptr %1
}